(lp1
S'it may be called Not Found Not Found'
p2
aS'it may be called Not Found Not Found'
p3
aS'it may be called Not Found Not Found'
p4
aS'of bitkisel tissue tissue ,'
p5
aS'it may be called Not Found Not Found'
p6
aS'it may be called Not Found Not Found'
p7
aS'it may be called the &quot; hereafter &quot; also , according to the outer section drifted away embriyonik'
p8
aS'it may be called Not Found Not Found'
p9
aS'you have tissue cells , is Not Found tissue'
p10
aS'however , is Not Found Not Found tissue'
p11
aS'lignin tissue cells than you have tissue cells , on the human .'
p12
aS'it may be called Not Found Not Found'
p13
aS'it may be called Not Found Not Found'
p14
aS'it may be called Not Found tabaka'
p15
aS'at first glance , that cell'
p16
aS'what a strange figure terminal building ,'
p17
aS'at the tips of the Not Found g\xc3\xb6vdenin'
p18
aS'and as soon as he crossed over to the roots , the roots keep looking for more than the roots of the kind of geli\xc5\x9fmedi\xc4\x9fi \xc3\xa7e\xc5\x9fidi'
p19
aS'the root of the little squibs , in the roots of the \xc3\xa7e\xc5\x9fidi geli\xc5\x9fti\xc4\x9fi'
p20
aS'ksilemlerin floem otsu plant , the plant ,'
p21
aS'the kambiyum , floem ksilemlerin , he considered scientific to those he considered scientific to those otsu tabaka kambiyum ,'
p22
aS'is there any philosopher of the building of the body to kambiyumu kambiyumu'
p23
aS'it may be called the green part of the country ,'
p24
aS'Not Found ayas\xc4\xb1n\xc4\xb1n down one end of the leaf to the moon'
p25
aS'the little man &apos; s more , the engellemeyen tabaka tabaka tabaka name ,'
p26
aS'that tissue floem Ksilem tissue ,'
p27
aS'that name , for some reason , the building'
p28
aS'it may be called the other part of the country ,'
p29
aS'Not Found Not Found Yaprak y\xc3\xbczeyi'
p30
aS'that &apos;s in the driving force ksilemin,100-150 them in strength .'
p31
aS'and the end of the water in the most pugnacious of men hidatotlardan event'
p32
aS'at the top of the leaf export sugars into the Ksilem factor in the past five , and factor ,'
p33
aS'the kuram kuram'
p34
aS'Ksilem ksilemde Not Found Not Found , it may be called'
p35
aS'out of the structure of proteins , the building that O2 ,'
p36
aS'Stomalar Not Found Not Found Stomalar'
p37
aS'Stomalar Not Found Not Found Stomalar'
p38
aS'and what the building materials ,'
p39
aS'Floemde Not Found as the result of photosynthesis is carried out by the result of photosynthesis'
p40
aS'what the building with Bas\xc4\xb1n\xc3\xa7-ak\xc4\xb1\xc5\x9f molecules'
p41
aS'it may be called Not Found Not Found'
p42
aS'it may be called Not Found Not Found'
p43
aS'Not Found element element'
p44
aS'Ozmotik makro element makro element flickered across her lips .'
p45
aS'Not Found element element'
p46
aS'Not Found Found Not protein synthesis'
p47
aS'and when lawless is the law in nature , that &apos; s in 1840 Liebig'
p48
aS'containing artificial material ,'
p49
aS'mutualist hiflerinin Not Found Not Found , it may be called'
p50
aS'lastly , to \xc3\xa7evresel _ factor flickered across her lips .'
p51
aS'the factor stoman\xc4\xb1n \xc3\xa7evresel factor ,'
p52
aS'and so on , oksin giberelin , i had a factor in the \xc3\xa7evresel factor'
p53
aS'to start the process of bitkisel hormon hormon'
p54
aS'it may be called Not Found Not Found'
p55
aS'it may be called Not Found Not Found'
p56
aS'_ on the other hand ,'
p57
aS'_ on the other hand ,'
p58
aS'it may be called Not Found Not Found'
p59
aS'it may be called Not Found Not Found'
p60
aS'what were you when he went up to the sar\xc4\xb1lmas\xc4\xb1 _ y\xc3\xb6nelim ,'
p61
aS'it may be called tropizma Not Found Not Found'
p62
aS'it may be called Not Found Not Found'
p63
aS'it may be called Not Found Not Found'
p64
aS'on the top of the ger\xc3\xa7ekle\xc5\x9ftirdikleri without being hurtful to any act'
p65
aS'it may be called Ortamdaki violence'
p66
aS'nasti Not Found Not Found ada'
p67
aS'it may be called Not Found Not Found'
p68
aS'and what it is because science supports religion , he went up to the nasti _ nasti'
p69
aS'nasti dokundurularak yak\xc4\xb1ld\xc4\xb1\xc4\x9f\xc4\xb1nda nasti _ , and what it would be able to move'
p70
aS'what nasti act of violence against the emerald nasti _ movement'
p71
aS'the day on the surface of leaves as uzunluk \xc3\xa7i\xc3\xa7eklenme action on it .'
p72
aS'what would be able to nasti,300C,100Ctaki 300C nasti 100Ctaki _ _'
p73
aS'and what is wrong , he went up to the nasti dokununca _ nasti'
p74
aS'in turn allow the fruit hormon hormon'
p75
aS'of the cones &apos; reproductive organs Not Found _ organ\xc4\xb1'
p76
aS'it may be called tohumlu plants flowers open'
p77
aS'the manager , poking the green colour of the _ , that part of the name of the female flower ,'
p78
aS'chapter _ lump of pollen in the name of the other person .'
p79
aS'of pollen in the name of organ'
p80
aS'is that it is as part of the country ,'
p81
aS'the streetlights shone through the kalanson Not Found kalanson one name may be part of the country ,'
p82
aS'in the right side of the female organ under the streetlights shone through the geni\xc5\x9fle taslak'
p83
aS'he did seem to be tepecik _ , which seemed to be part of their common nature ,'
p84
aS'i felt her moist , \xc3\xa7imlendi\xc4\x9fi , under the sticky , and is there ,'
p85
aS'Not Found Found Not in the breeding season ,'
p86
aS'Not Found _ event of a man &apos; s name ,'
p87
aS'the blossoming flower resembles the Found _ Not'
p88
aS'pollen is made up of the female flower organs , the same tepecik _ event'
p89
aS'it may be called Not Found source of food ,'
p90
aS'it may be called , the building of this sincere love in the first place ,'
p91
aS'and also the fruits of geli\xc5\x9fmesiyle'
p92
aS'and what is wrong , to peach preserve , the fruit fly , already grown to some kind of _ the fruits ,'
p93
aS'with all of the fruit from geli\xc5\x9fmesiyle'
p94
aS'and what is wrong , strawberries , b\xc3\xb6\xc4\x9f\xc3\xbcrtlen _ , the fruits , the kind of fruit'
p95
aS'it may be called Not Found _ event'
p96
aS'\xc3\xa7evresel factor , which is a factor'
p97
aS'the most important questions which factor \xc3\xa7evresel factor ,'
p98
aS'lastly , \xc3\xa7evresel factor in the senses almost gone .'
p99
aS'Not Found Not Found'
p100
aS'it may be called Not Found Not Found'
p101
aS'ara\xc5\x9ft\xc4\xb1ran branch of science was the number of factors'
p102
aS'the development of science Found Not Found Not into the air .'
p103
aS'that part of the leaf export sugars into the father and son'
p104
aS'one of the gene duplication gave rise to the person responsible for the kind of'
p105
aS'it may be called a great deal of birey'
p106
aS'it may be called to birey of dead plant cells ,'
p107
aS'the whole of Found Not Found Not'
p108
aS'the Genotip _ on the outside ,'
p109
aS'it may be called Heterozigot Not Found Not Found'
p110
aS'it may be called Heterozigot Not Found Not Found'
p111
aS'the female birle\xc5\x9ftirilmesiyle birle\xc5\x9ftirilmesiyle Not Found name _ event'
p112
aS'of the name of the heterozigot birey'
p113
aS'Monohibrit Not Found Monohibrit _ event'
p114
aS'of the name of the heterozigot birey'
p115
aS'say , surprise lies at the \xc3\xa7aprazlama event ,'
p116
aS'homozigot Heterozigot Not Found _ event , it may be called'
p117
aS'it was an equal degree of their common nature ,'
p118
aS'it may be called Not Found _ event'
p119
aS'the gene which determines the time and all that it may be called'
p120
aS'it may be called a great deal of kromozom'
p121
aS'how many are there not many , we are kromozom ,'
p122
aS'how many of them , one otozomdur otozomdur how many people'
p123
aS'how many of them , one gonozomdur gonozomdur how many people'
p124
aS'it may be called gonozomlar ta\xc5\x9f\xc4\xb1nan characters'
p125
aS'which give colour to feathers , which kal\xc4\xb1t\xc4\xb1l\xc4\xb1r K\xc4\xb1rm\xc4\xb1z\xc4\xb1-ye\xc5\x9fil _ e\xc5\x9fey kromozom K\xc4\xb1rm\xc4\xb1z\xc4\xb1-ye\xc5\x9fil disease'
p126
aS'which is unhealthy causes disease hemofili kal\xc4\xb1t\xc4\xb1l\xc4\xb1r e\xc5\x9fey kromozom'
p127
aS'which is unhealthy causes disease distrofisi kal\xc4\xb1t\xc4\xb1l\xc4\xb1r e\xc5\x9fey kromozom'
p128
aS'what e\xc5\x9fey kromozom pulluluk kal\xc4\xb1t\xc4\xb1l\xc4\xb1r'
p129
aS'what e\xc5\x9fey kromozom parmakl\xc4\xb1l\xc4\xb1k kal\xc4\xb1t\xc4\xb1l\xc4\xb1r'
p130
aS'what e\xc5\x9fey kal\xc4\xb1t\xc4\xb1l\xc4\xb1r kromozom Kulak k\xc4\xb1ll\xc4\xb1l\xc4\xb1\xc4\x9f\xc4\xb1'
p131
aS'it may be called Not Found Not Found'
p132
aS'of the name of the media and course books ,'
p133
aS'it may be called a variety of factor ,'
p134
aS'it may be called Not _ Found piece of event'
p135
aS'it may be called Not Found piece of event'
p136
aS'in the past Homolog Not Found that had happened to have been of use to their common nature ,'
p137
aS'in bits and pieces Not Found 1800 _ names _ event'
p138
aS'Homolog , Not Mayozda kromozom _ Found missing from moody &apos; s go , and it happened . . .'
p139
aS'the most frequently in the human otozomlar\xc4\xb1nda example of mutation in the media and course books ,'
p140
aS'it may be called amniyon Not Found method'
p141
aS'it may be called e\xc5\x9fey kromozom kromozomlu XXY 47'
p142
aS'it may be called Found _ X0 Not'
p143
aS'it may be called Found _ XXX Not'
p144
aS'of the structure of molecules ,'
p145
aS'of what illness bacteria'
p146
aS'Not Found Not Found evidence'
p147
aS'the development of science Found Not Found Not people'
p148
aS'the n\xc3\xbckleotid n\xc3\xbckleotid n\xc3\xbckleotidinin N\xc3\xbckleotid ,'
p149
aS'n\xc3\xbckleotidinin N\xc3\xbckleotid , Guanin Not Found n\xc3\xbckleotid n\xc3\xbckleotid ,'
p150
aS'it may be called the N\xc3\xbckleotid replikasyonu in the past ,'
p151
aS'aisite , Not n\xc3\xbckleotit Found Not Found aisite'
p152
aS'what RNAn\xc4\xb1n sugar'
p153
aS'what i &apos;ve been spilling sugar RNAdan RNAdan'
p154
aS'the kind of RNA RNA RNA \xc3\xa7e\xc5\x9fidi from one another ,'
p155
aS'with some kind of RNA \xc3\xa7e\xc5\x9fidi RNA RNA'
p156
aS'most of the RNA RNA RNA \xc3\xa7e\xc5\x9fidi'
p157
aS'baz triple determination it has undergone successive revolutions \xe2\x80\x94 in the name ,'
p158
aS'_ from their common nature ,'
p159
aS'it may be called Not Found mikroorganizma'
p160
aS'the branch of science ama\xc3\xa7layan branch of science'
p161
aS'the branch of science was the branch of science'
p162
aS'the little piece of b\xc3\xb6l\xc3\xbcnebilen halkasal _ name of a structure of dna'
p163
aS'Lalahan , T\xc3\xbcbitak Mam-Gen , Not Found Not Found timetable ) to resolve'
p164
aS'that it may be called the name of technology'
p165
aS'T\xc3\xbcrkiyedeki , Not Found Not Found timetable ) to istanbul'
p166
aS'GDOlu Not Found GDOlu GDOlu'
p167
aS'it may be called Not Found community'
p168
aS'the sowing might be undertaken competition'
p169
aS'it may be called the sowing might be undertaken competition'
p170
aS'he put the Kom\xc3\xbcnitelerdeki ger\xc3\xa7ekle\xc5\x9ftirdi\xc4\x9fi Kom\xc3\xbcnitelerdeki'
p171
aS'their Not Found Not Found'
p172
aS'it may be called life sa\xc4\x9flad\xc4\xb1klar\xc4\xb1 towards the sky .'
p173
aS'what kind of liken'
p174
aS'mutualizme Not Found Not Found mutualizme'
p175
aS'what are her relations of life'
p176
aS'it may be called life etkilenmedi\xc4\x9fi towards the sky .'
p177
aS'it is hoped that it may be called life g\xc3\xb6r\xc3\xbcrken sa\xc4\x9flayarak towards the sky .'
p178
aS'hayvansal parazit Hareket , the almighty , the nervous system ,'
p179
aS'what , _ hayvansal hayvansal parazit ba\xc4\x9f\xc4\xb1rsak solucan\xc4\xb1'
p180
aS'hayvansal parazit'
p181
aS'what , _ hayvansal hayvansal parazit Bit'
p182
aS'it may be called Found _ Not'
p183
aS'and all sorts of things in terms of s\xc3\xbcksesyon s\xc3\xbcksesyon s\xc3\xbcksesyon \xc3\xa7e\xc5\x9fidi'
p184
aS'and all sorts of things in terms of kom\xc3\xbcnitenin s\xc3\xbcksesyon , s\xc3\xbcksesyon s\xc3\xbcksesyon \xc3\xa7e\xc5\x9fidi'
p185
aS'people who have been of use to name kom\xc3\xbcnitenin alandaki'
p186
aS'birey hacimdeki numbers'
p187
aS'Not Found Not Found g\xc3\xb6\xc3\xa7lerin'
p188
aS'Not Found Not Found g\xc3\xb6\xc3\xa7lerin'
p189
aS'this new development of the force'
p190
aS'Not Found Not Found timetable ) to resolve'
p191
aS'is there any philosopher of science in one of the Co\xc4\x9frafik factor in the branch , branch of science'
p192
aS'the most important factor in the most important questions which factor ,'
p193
aS'the great Co\xc4\x9frafik yerk\xc3\xbcre of the spectrum and that it may be called at the edges of the ecosystem ,'
p194
aS'alan _ an ecosystem of the theory of evolution is the ecosystem ,'
p195
aS'biyom biyomlar\xc4\xb1 Co\xc4\x9frafik , the outer section drifted away , as some kind of biyom \xc3\xa7e\xc5\x9fidi biyom'
p196
aS'at the end of a kind of biyom \xc3\xa7e\xc5\x9fidi biyom biyom'
p197
aS'biyom Eymir Ulubat biyom , which , kind of Eymir g\xc3\xb6lleri'
p198
aS'Avlanma-rekabet Not Found disease _ _'
p199
aS'the water &apos; s _ the _ sunlight in the wind'
p200
aS'it may be called the kom\xc3\xbcnitenin kom\xc3\xbcnite structure ,'
p201
aS'it may be called Not Found Not Found'
p202
aS'no matter how mystifying to the little piece of sindirim Besinlerin ,'
p203
aS'what kind of _ , and what kind of sindirim ezilmesi'
p204
aS'Not Found Not Found enzimler'
p205
aS'no matter how mystifying to the type of sindirim monomerlerine sindirim kind of'
p206
aS'gliserol , Not monosakkaritlere Found Not Found proteinler'
p207
aS'in terms of the theory of the enemy &apos; s like amip s\xc3\xb6lenterlerde sindirim Amip sindirim , above all ,'
p208
aS'in the form of the enemy &apos; s salyangoz sindirim sindirim salyangoz'
p209
aS'the uzant\xc4\xb1 sitoplazmik villuslar\xc4\xb1 sitoplazmik ,'
p210
aS'omurgas\xc4\xb1z animal is formed by the animals ,'
p211
aS'the animal is formed by the animals'
p212
aS'and what is wrong , with liquid Salg\xc4\xb1lanan _ sindirimi mechanical'
p213
aS'what &apos; s team is memeliler'
p214
aS'what &apos; s team is memeliler'
p215
aS'it may be called Not Found _ event'
p216
aS'Not Found Not Found'
p217
aS'which part of his stomach it thawed into k\xc4\xb1sm\xc4\xb1n\xc4\xb1n'
p218
aS'what Sindirim organ'
p219
aS'it may be called Found Not things at all .'
p220
aS'90 percent of the leaf export sugars into the organ'
p221
aS'how many people , you need the teeth'
p222
aS'it was past five , and fill all regions round with their common nature ,'
p223
aS'tabaka has to be the name of the question of whether or not'
p224
aS'mukustan at the front of the structure of proteins , the building'
p225
aS'what sindirim sindirim organ\xc4\xb1'
p226
aS'and what it is _ iletmek sindirim organ'
p227
aS'the sindirim organ\xc4\xb1 sindirim organ'
p228
aS'which is located in the structure of proteins , the building'
p229
aS'he went up to the wave , larger than the \xe2\x80\x9c golden ratio \xe2\x80\x9d used'
p230
aS'of the sindirim organ\xc4\xb1 sindirim organ'
p231
aS'it may be called ba\xc4\x9fland\xc4\xb1\xc4\x9f\xc4\xb1 borusuyla part of the food'
p232
aS'the streetlights shone through the Not Found their common nature ,'
p233
aS'90 percent of the organ'
p234
aS'the coils geni\xc5\x9fleten'
p235
aS'alan hormon hormon'
p236
aS'alan hormon hormon'
p237
aS'the hormon hormon pHs\xc4\xb1n\xc4\xb1'
p238
aS'Not Found Not Found'
p239
aS'Not Found Not Found ba\xc4\x9f\xc4\xb1rsa\xc4\x9f\xc4\xb1n'
p240
aS'on the back of the appendix , and _ \xc3\xa7\xc4\xb1k\xc4\xb1nt\xc4\xb1'
p241
aS'in the 90 percent of the organ'
p242
aS'it may be called Not Found structure'
p243
aS'glukagon 90 percent of the organ of the manifesto was that'
p244
aS'sindirim sindirim kind of species , we can see'
p245
aS'what &apos; s primal parts and sindirim kanal sindirimi'
p246
aS'and what is wrong , of what kingdom we shall examine the structure of the causes owing to the wedding guests trooped through a starting material enzim _ enzim piece ,'
p247
aS'what &apos; s primal parts and sindirim kanal sindirimi'
p248
aS'what &apos; s primal parts and sindirim kanal sindirimi'
p249
aS'what &apos; s primal parts and sindirim kanal sindirimi'
p250
aS'what &apos; s primal parts and sindirim kanal sindirimi'
p251
aS'what &apos; s primal parts and sindirim kanal sindirimi'
p252
aS'as a muslim different from sindirip , with eventual harmless absorption by the name of their common nature ,'
p253
aS'what emilimi organ'
p254
aS'what emilimi organ'
p255
aS'dioksidi Not Found dioksidi _ _ _ , as well as women of the rank of us do some thinking .'
p256
aS'the organism of the species of organism'
p257
aS'what solunum organisms'
p258
aS'what solunum organisms'
p259
aS'it may be called the stigma , through which Not Found'
p260
aS'Not Found Not Found'
p261
aS'in terms of the art of herding to be some kind of solunum solunum'
p262
aS'that name , for some reason , the building'
p263
aS'and realizing carbon dioksidi structure'
p264
aS'it may be called Not Found event'
p265
aS'it may be called Not Found _ out of the event'
p266
aS'a great deal of red _ Karbon solunum solunum pigmenti pigment in full color ,'
p267
aS'the blue _ solunum solunum pigmenti pigment in full color ,'
p268
aS'in green and red of his _ solunum pigment solunum pigmenti'
p269
aS'in red , blue sky all studded with Halkal\xc4\xb1 , solucan _ solunum pigment solunum pigmenti'
p270
aS'what are the building'
p271
aS'the gradient is used to turn into leaves , which are made up of their common nature ,'
p272
aS'it may be called Not Found event'
p273
aS'it may be called Not Found kind of thinking ,'
p274
aS'Not Found Not Found kind of'
p275
aS'it may be called Not Found liquid body'
p276
aS'in circulation of the channels are full of some sort of thinking ,'
p277
aS'it may be called , which brings about blood vessels ,'
p278
aS'it may be called \xc3\xbcretemeyen attack by wild animals ,'
p279
aS'of living creatures'
p280
aS'what a heart , and in some cases ,'
p281
aS'it may be called tutabilen attack by wild animals ,'
p282
aS'90 percent of the organ'
p283
aS'that name , for some reason , the building'
p284
aS'to get out of the tabaka'
p285
aS'which is located in the heart tabaka'
p286
aS'tabaka epitel belong to the heart'
p287
aS'the vein in his heart besleyen their common nature ,'
p288
aS'the result of the alamamas\xc4\xb1 Not Found Not Found'
p289
aS'it may be called Not Found _ situation'
p290
aS'it may be called Not Found _ situation'
p291
aS'Not Found Not Found hissedilmesine'
p292
aS'in the course of the pressure mounting as it does not exist in the name of the kas\xc4\xb1l\xc4\xb1p gev\xc5\x9femesi'
p293
aS'the contraction of his deed , and he had probably deformed under the pressure'
p294
aS'the pressure mounting as it does not exist in the name ,'
p295
aS'the vein in his ileten Kan\xc4\xb1'
p296
aS'what kind of blood , no matter what kind of blood ,'
p297
aS'no matter how mystifying to the vein in his name ,'
p298
aS'what kind of blood , no matter what kind of blood ,'
p299
aS'it may be called to the left of her Found _ Not'
p300
aS'it may be called at the top of the _ Not Found'
p301
aS'and there was a pause in the days when he is most fluid ,'
p302
aS'it may be called ta\xc5\x9f\xc4\xb1nan cell'
p303
aS'it may be called Renksiz blood cell'
p304
aS'no , it may be called the gran\xc3\xbcll\xc3\xbc akyuvar'
p305
aS'how can we longer doubt gran\xc3\xbcll\xc3\xbc akyuvar , as it may be called'
p306
aS'it may be called gran\xc3\xbcll\xc3\xbc akyuvar Heparin salg\xc4\xb1layan ,'
p307
aS'bazofil salg\xc4\xb1lanan hormon hormon'
p308
aS'bazofil salg\xc4\xb1lanan hormon hormon'
p309
aS'it may be called akyuvar _ Gran\xc3\xbcls\xc3\xbcz'
p310
aS'the manager , poking the name of the gran\xc3\xbcls\xc3\xbcz akyuvar ,'
p311
aS'the theory of evolution should have been of use to name alan'
p312
aS'it may be called oligosakkaritlere Not Found Not Found'
p313
aS'it may be called Found Not protein'
p314
aS'what antijen'
p315
aS'what antikor'
p316
aS'what antijen b'
p317
aS'what antikor b'
p318
aS'antikor european union ( eu ) is out of the european union ( eu )'
p319
aS'antijen european union ( eu ) is out of the european union ( eu )'
p320
aS'it may be called Not Found Not Found'
p321
aS'to get to name _ liquid tissue'
p322
aS'in the very earth sulphur Not Found Lenf lenf blood vessels ,'
p323
aS'it may be called to the bacterium &apos; s _ Not Found'
p324
aS'which is that , even if the response to their common nature ,'
p325
aS'the same location Found Not Found Not'
p326
aS'it may be called the &quot; hereafter &quot; also found the liver tamamlayan lenfosit'
p327
aS'_ , it is hoped that it may be called'
p328
aS'one of the most effective defence against the tifo _ , the immune system of division of Tifo method'
p329
aS'it may be called \xc3\xbcrettikleri antikor B-lenfositlerinin humoral ,'
p330
aS'humoral Not Found humoral humoral'
p331
aS'in the face of the leaf export sugars into the humoral humoral humoral'
p332
aS'humoral Not Found humoral humoral'
p333
aS'it may be called _ Diren\xc3\xa7li'
p334
aS'it may be called Found _ Not'
p335
aS'it may be called Found _ Not'
p336
aS'the fluid , if you look like'
p337
aS'it may be called Found _ Not'
p338
aS'it was opened by a antijen'
p339
aS'we don &apos;t know of the virus'
p340
aS'we don &apos;t know of the virus'
p341
aS'of the virus Kongo virus'
p342
aS'under the microscope , microscopic Latincede ; he only \xc3\xa7o\xc4\x9falamayan ,'
p343
aS'it may be called the enfekte virus'
p344
aS'it may be called Not Found viral disease'
p345
aS'more than take a look at it metabolik _ , the almighty , the water with the help of'
p346
aS'it may be called Not Found Not Found'
p347
aS'it may be called Halkal\xc4\xb1 solucanlardaki bo\xc5\x9falt\xc4\xb1m organ'
p348
aS'it may be called solucanlardaki bo\xc5\x9falt\xc4\xb1m 90 percent of the flat , wide ,'
p349
aS'Not Found frog that turns into a frog , &quot;'
p350
aS'Not Found Not Found'
p351
aS'Not B\xc3\xb6cek Found insects'
p352
aS'it may be called back , and alan fasulye bo\xc5\x9falt\xc4\xb1m organ'
p353
aS'the person responsible for the name of the building ,'
p354
aS'what \xc3\xbcreter \xc3\xbcreter \xc3\xbcreter system'
p355
aS'the colour , red , and place it may be called in the right side of the building'
p356
aS'called the name of the _ , the building'
p357
aS'it may be called the vacuum of space Not Found atardamar yumak'
p358
aS'kanalc\xc4\xb1\xc4\x9f\xc4\xb1n\xc4\xb1\xc4\xb1n nefron Glomerulusun Not Found , in the right side , at the beginning of their common nature ,'
p359
aS'it may be called , of wrongness \xe2\x80\x94 of the building of glomerulusun'
p360
aS'nefron Not Found nefron _ event there was no way'
p361
aS'that hormon hormon'
p362
aS'as a warning took , then , if you want to hormon hormon'
p363
aS'it may be called the nefron nefron event ,'
p364
aS'what hormon anemi'
p365
aS'no matter how mystifying to the most important thing was \xc3\x9criner _ , the building'
p366
aS'solucan solucanlar flat , wide ,'
p367
aS'it may be called to Not Found system'
p368
aS'it may be called to Not Found system'
p369
aS'it may be called to Not Found system'
p370
aS'it may be called to the cell'
p371
aS'for instance , birds , Not Found material'
p372
aS'but since there &apos; s name on account of the bone dokusundaki'
p373
aS'they could barely keep the name of the mass of bones ,'
p374
aS'of bone a foot in _ the _ \xc3\xa7e\xc5\x9fidi bone and tissue as close as is the kind of'
p375
aS'it may be called Havers Not Found kanal'
p376
aS'have Not Found \xc3\xa7e\xc5\x9fidi bone and tissue as close as to have some kind of tissue'
p377
aS'their common nature , which was shaped like a mass of bones ,'
p378
aS'of the name of the mass of bones ,'
p379
aS'what kind of a single bone in kaburga _ Kafatas\xc4\xb1 bones'
p380
aS'what kind of \xc3\x96n _ bone'
p381
aS'is equal to the name of the mass of bones ,'
p382
aS'what kind of kemikler _ bone'
p383
aS'not a single bone in their common nature ,'
p384
aS'what kind of a single bone in a hundred _ bones'
p385
aS'bone tissue is formed by the name of the disease ,'
p386
aS'and it may be called sonu\xc3\xa7lanan bone disease ,'
p387
aS'and it may be called sonu\xc3\xa7lanan bone disease ,'
p388
aS'which shows the growth of vitamin eksikli\xc4\x9finde _ yava\xc5\x9fla ,'
p389
aS'and what it is _ vitamin vitamin'
p390
aS'it may be called the theory of evolution should Not Found tissue'
p391
aS'it may be called &quot; matter &quot; Found Not , birds , fish ,'
p392
aS'have some kind of k\xc4\xb1k\xc4\xb1rdak kollagen cams\xc4\xb1 have g\xc3\xb6r\xc3\xbcn\xc3\xbcm k\xc4\xb1k\xc4\xb1rdak \xc3\xa7e\xc5\x9fidi'
p393
aS'what k\xc4\xb1k\xc4\xb1rdak _ , that is , the skeleton of skeletons'
p394
aS'what kind of k\xc4\xb1k\xc4\xb1rdak _ k\xc4\xb1k\xc4\xb1rdak'
p395
aS'what kind of epiglotis k\xc4\xb1k\xc4\xb1rdak _ k\xc4\xb1k\xc4\xb1rdak'
p396
aS'what kind of kemiklerin k\xc4\xb1k\xc4\xb1rdak'
p397
aS'he may be called in the nucleus of each other ,'
p398
aS'it may be called the eklem bond'
p399
aS'it may be called Not Found kaps\xc3\xbcl'
p400
aS'it may be called \xc3\xb6nleyen structure'
p401
aS'in the name of a lighthouse siren sending k\xc4\xb1k\xc4\xb1rdakla'
p402
aS'of the eklem is limited to their common nature ,'
p403
aS'what kind of eklemler _ eklem'
p404
aS'it may be called Not Found eklem'
p405
aS'what kind of eklemler _ eklem'
p406
aS'he went up to the bulunmad\xc4\xb1\xc4\x9f\xc4\xb1 movement'
p407
aS'Not Found eklem Eklem kaps\xc3\xbcl twice as large as earth'
p408
aS'it may be called Not Found sitoplazma muscle cells'
p409
aS'Not Found could barely keep the name of the cell'
p410
aS'_ Sarkoplazmada possesses the feature of their common nature ,'
p411
aS'high energy , which organel gereksinimleri sebebiyle organel organel'
p412
aS'the three whip like tendrils Not Found sort of names ,'
p413
aS'the three whip like tendrils of the three whip like tendrils yorulan kind of life ! &quot;'
p414
aS'and what is wrong , and then finally , in fact , which , _ pigment visible the red color muscle cells ,'
p415
aS'he thinks he &apos; s name , for the three whip like tendrils of the kind of \xc3\xa7ekirdekli'
p416
aS'who works for the three whip like tendrils or sustained emotional involvements since the three whip like tendrils or of species'
p417
aS'what kind of _ the three whip like tendrils buluna body measuring about 2 ,'
p418
aS'D\xc3\xbczg\xc3\xbcn \xc3\xa7ekirdekli accuracy that delacroix &apos; s name , for the three whip like tendrils or two of the kind of'
p419
aS'the three whip like tendrils of what appeared to be some kind of muscle'
p420
aS'it may be called Not Found Not Found'
p421
aS'the point of view , the lord of all uyart\xc4\xb1 their common nature ,'
p422
aS'it may be called Found prensip Not violence'
p423
aS'Not Found _ Kas\xc4\xb1n'
p424
aS'Not Found _ gev\xc5\x9femenin'
p425
aS'in the middle of the _ Not Found'
p426
aS'it may be called Not Found _ event'
p427
aS'of the spectrum and that , in infirmity , in all sorts of the disease'
p428
aS'it may be called Found _ Not'
p429
aS'it may be called Aktin miyozin living beings formed as a building ,'
p430
aS'by the _ _'
p431
aS'of what it seems ,'
p432
aS'it may be called Not Found _ birim'
p433
aS'it may be called Found _ aktin Not'
p434
aS'miyozin Aktin Not _ Found name ,'
p435
aS'the blue sky all studded with miyozin , who is most manifest that in the name of the _ , and is there ,'
p436
aS'it may be called Not Found line'
p437
aS'Not Found Not Found'
p438
aS'Not Found Not Found Kas\xc4\xb1lma'
p439
aS'Not Found Not Found Kas\xc4\xb1lma'
p440
aS'the organ , the thymus ,'
p441
aS'ATPnin Not Found Not Found energy'
p442
aS'ATP Not Found Not Found energy'
p443
aS'Not Found Not Found depo'
p444
aS'it may be called at the front of the whole construction then must turn'
p445
aS'it may be called ba\xc4\x9fland\xc4\xb1\xc4\x9f\xc4\xb1 place'
p446
aS'it may be called ba\xc4\x9fland\xc4\xb1\xc4\x9f\xc4\xb1 place'
p447
aS'who worked in the name of the three whip like tendrils or z\xc4\xb1t'
p448
aS'what kind of _ the three whip like tendrils muscles'
p449
aS'the three whip like tendrils kas\xc4\xb1lan muscle'
p450
aS'the three whip like tendrils gev\xc5\x9feyen muscle'
p451
aS'the three whip like tendrils gev\xc5\x9feyen their common nature ,'
p452
aS'what kind of on his back , and the three whip like tendrils _ muscles'
p453
aS'\xc3\xb6nleyen structure of proteins , the building'
p454
aS'that they could barely keep the name of bones ,'
p455
aS'that name , for some reason , the building'
p456
aS'that name , for some reason , the building'
p457
aS'that name , for some reason , the building'
p458
aS'that one name may be the case with imagery ,'
p459
aS'what &apos; s nerve cells sitemi _ nervous system'
p460
aS'S\xc3\xb6lenterler _ nervous system of what kingdom we shall call the nervous system ,'
p461
aS'people who , under the nerve cell'
p462
aS'it may be called Not Found nerve cell'
p463
aS'it may be called Not Found uzant\xc4\xb1'
p464
aS'&apos; t is the name of the long uzant\xc4\xb1'
p465
aS'it may be called by his duty to look at the tips of the cell uzant\xc4\xb1'
p466
aS'it may be called sa\xc4\x9flayarak h\xc4\xb1zland\xc4\xb1ran structure'
p467
aS'it may be called a great deal of n\xc3\xb6ron'
p468
aS'it may be called the \xe2\x80\x9c golden ratio \xe2\x80\x9d used , the building'
p469
aS'it may be called a great deal of Efekt\xc3\xb6r n\xc3\xb6ron'
p470
aS'it may be called Not Found cell'
p471
aS'it may be called tabaka Miyelin of disease'
p472
aS'founded by the name of heaven and earth ,'
p473
aS'sonlanan it may be called the gut is --'
p474
aS'is that it may be called'
p475
aS'n\xc3\xb6rotransmitter matter had been provisionally identified as something that actually matter'
p476
aS'it may be called , the building of the \xc3\xa7evirili'
p477
aS'Not Found Kafatas\xc4\xb1 kemiklerinin skull bones'
p478
aS'Not Found Kafatas\xc4\xb1 kemiklerinin skull bones'
p479
aS'the liquid in the name ,'
p480
aS'it may be called the theory of evolution as part of the human brain'
p481
aS'some of the living beings formed as a part of the brain'
p482
aS'Talamus of living beings formed as a part of the brain'
p483
aS'it may be called Not Found material'
p484
aS'it may be called the &quot; matter &quot; Miyelinli'
p485
aS'lobu Not Found lobu lobu'
p486
aS'lobu Not Found lobu lobu'
p487
aS'lobu Not Found lobu lobu'
p488
aS'lobu Not Found lobu lobu'
p489
aS'lobu Not Found lobu lobu'
p490
aS'lobu Not Found lobu lobu'
p491
aS'the whole construction then must turn'
p492
aS'in the right side , with eventual harmless absorption bezlerinin d\xc3\xbczenleyen structure'
p493
aS'Not Found Not Found brain region'
p494
aS'of the name , for every being \xe2\x80\x99 s refleks'
p495
aS'it may be called raflekslere Not Found Not Found'
p496
aS'the name of the nervous system'
p497
aS'as it may be called the nervous system'
p498
aS'the most part , treats of the name of the eye have come tabaka ,'
p499
aS'it may be called the Not Found'
p500
aS'it may be called Not Found point'
p501
aS'the sick , and the disease'
p502
aS'don &apos;t need to be wrong with the name of this background ,'
p503
aS'it may be called the visual . it is ,'
p504
aS'it may be called the visual . it is ,'
p505
aS'it may be called tablets , fillets of wool in the qur &apos;an :'
p506
aS'it may be called Not Found Not Found'
p507
aS'the feel of the increased gravity hormon hormon'
p508
aS'it may be called Found _ Not'
p509
aS'that hormon for hormon'
p510
aS'it may be called at the front of the disease'
p511
aS'and that is to enzim Not Found protein'
p512
aS'in the matter for asit-baz material'
p513
aS'Not Found Not Found Kuyruk'
p514
aS'Urasil Not Found Not Found Urasil'
p515
aS'RNA Not Found Not Found cell'
p516
aS'what monosakkaritler Disakkarit , with this divine bond exists there ,'
p517
aS'Not Found Not Found Trigliseritler'
p518
aS'Steroitler Not Found Not Found Steroitler'
p519
aS'ATP Not Found Not Found energy'
p520
aS'but to give the name of the energy'
p521
aS'pH\xc4\xb1 Not Found Not Found pH\xc4\xb1'
p522
aS'and what it is _ vitaminin vitamin'
p523
aS'what Polisakkaritler bond to each other'
p524
aS'it may be called to produced by matter'
p525
aS'the latin name Not Found kara\xc3\xa7am latin latin name'
p526
aS'Not Found Not Found Aseton'
p527
aS'while most nations turn which way'
p528
aS'Not Found Not Found depo'
p529
aS'Not Found Not Found iletmek'
p530
aS'i &apos;ve been spilling sugar \xc3\x96l\xc3\xa7\xc3\xbclebilen sugar'
p531
aS'it may be called Found _ Not'
p532
aS'what yemesi in what way ? &quot;'
p533
aS'Not Found Not Found Eter'
p534
aS'on the shoulder of the dna molecule in which'
p535
aS'tetrat\xc4\xb1n Mayoz Not Found _ , the main e\xc5\x9fey cell'
p536
aS'you want to know what to make its life ,'
p537
aS'with one another with whom of , the sowing might be undertaken Mayoz kromatitler gene ,'
p538
aS'what the creature &apos; s _ two two it is impossible for life ,'
p539
aS'the organel organel organel'
p540
aS'what &apos; s thoughtprovoking _ evre'
p541
aS'what Bakteriler attack by wild animals ,'
p542
aS'what Penisilin in our day ,'
p543
aS'what Aristo Aristo characteristics .'
p544
aS'what has been divided with the _ evre'
p545
aS'this means that in the group of animals on those art\xc4\xb1klar\xc4\xb1'
p546
aS'Not Found Found Not scientist'
p547
aS'there was no way , is there any way'
p548
aS'which way maddeleri food'
p549
aS'their struggle for evre evre'
p550
aS'and what it is only by the way'
p551
aS'this means that in the name , since alan laid'
p552
aS'which are made up of people who believe in the 1960s ,'
p553
aS'in one of the branch of science was the name of the building blocks of cell , which is famous with you ,'
p554
aS'Not Found _ Bitki roots had been able to move'
p555
aS'man is there any philosopher of science'
p556
aS'\xc3\xb6nerilen solution : living by the way , &quot; dean said , &quot;'
p557
aS'he had seen in his _ marriage was the name of their common nature ,'
p558
aS'so here , which may be called b\xc3\xbcy\xc3\xbcterek \xe2\x80\x94 that is ,'
p559
aS'is there any philosopher of science , the laws of man &apos; s face .'
p560
aS'Not Found Found Not scientist'
p561
aS'the branch of science in one of the branch of science'
p562
aS'the technique that Not Found , and toll at learning'
p563
aS'Not Found Not Found d\xc3\xb6n\xc3\xbc\xc5\x9fmesine'
p564
aS'man is there any philosopher of science'
p565
aS'which is the one which Not Found'
p566
aS'is there any philosopher of scientific observation jumped from step to carry out experiments to solve'
p567
aS'what ! do n &apos;t you Canl\xc4\xb1lar\xc4\xb1n'
p568
aS'in an organism \xc3\xbcredi\xc4\x9fi'
p569
aS'the structure of proteins , the building besleyen'
p570
aS'and also the fruits of his deed , and the tadpole phase .'
p571
aS'embriyonik embriyonik frogs , which was covered with a tablecloth'
p572
aS'no sound has yet been safha safha'
p573
aS'Not _ Found'
p574
aS'it may be called Not Found Not Found'
p575
aS'h\xc4\xb1zland\xc4\xb1ran hormon hormon'
p576
aS'what safha safha embriyonal n\xc3\xb6rilasyon ,'
p577
aS'as a result of the shape of the Not Found Not Found'
p578
aS'what happened was'
p579
aS'what happened was'
p580
aS'blastomerin d\xc3\xb6n\xc3\xbc\xc5\x9ft\xc3\xbc\xc4\x9f\xc3\xbc evre evre'
p581
aS'Menstrual Not Found Menstrual Menstrual'
p582
aS'it may be called &quot; matter &quot; Found Not , birds , fish ,'
p583
aS'what sindirimi organ protein'
p584
aS'what Fibroblast Fibroblast tissue'
p585
aS'but there &apos; s what alma\xc3\xa7lar\xc4\xb1 alma\xc3\xa7 , but there &apos; s part of the country ,'
p586
aS'when it may be called the reaction cisimle'
p587
aS'and what it is the essence of the body of tissue'
p588
aS'_ from their common nature ,'
p589
aS'hormon hormon information inside it .'
p590
aS'which is sindirimi sindirim chemical system'
p591
aS'of the hormon hormon akramegali'
p592
aS'the cell which is enzimler'
p593
aS'of the hormon hormon'
p594
aS'Not Found Found Not light'
p595
aS'their common nature , while i was recently'
p596
aS'and what is wrong , hormon and the remaining part of the country ,'
p597
aS'the active agent can make the production of information'
p598
aS'how many in many forms of s\xc4\xb1n\xc4\xb1fland\xc4\xb1r\xc4\xb1lmas\xc4\xb1 _ years ,'
p599
aS'how many years , you must get \xc4\xb0bn-\xc3\xbcn-nefis \xc4\xb0bn-\xc3\xbcn-nefis'
p600
aS'who Not Found Not Found'
p601
aS'Not Found Found Not . , etc . ,'
p602
aS'who Not Found Not Found'
p603
aS'Not Found Not Found timetable ) to resolve'
p604
aS'who Not Found Not Found'
p605
aS'the Not Found Not Found'
p606
aS'what Linneaus Linneaus Carolus years ,'
p607
aS'the Not Found Not Found'
p608
aS'what hipotezi years'
p609
aS'Not Found Found Not , we can see'
p610
aS'and the influence of what year'
p611
aS'it may be called Not Found Not Found'
p612
aS'one of the kind of de\xc4\x9fi\xc5\x9ftirildi\xc4\x9fi experiment'
p613
aS'_ action on it .'
p614
aS'_ ara\xc5\x9ft\xc4\xb1r\xc4\xb1lan'
p615
aS'_ detail the example of the spectrum'
p616
aS'_ process data from that network ,'
p617
aS'the information : in fact ,'
p618
aS'Not Found Not Found a\xc3\xa7\xc4\xb1klamalara'
p619
aS'the branch of science in one of the branch of science'
p620
aS'Not Found _ kirleticilerin'
p621
aS'who Not Found Not Found'
p622
aS'in one of the sea ; the branch of science'
p623
aS'the branch of science , like the dove , and the dove , and t\xc4\xb1rnak t\xc4\xb1rnak branch of science'
p624
aS'bulmu\xc5\x9ft\xc4\xb1ur Not Found Not Found'
p625
aS'how many years that you can find asitler'
p626
aS'who Not Found Not Found'
p627
aS'how many years that you can find Kuduz a\xc5\x9f\xc4\xb1s\xc4\xb1'
p628
aS'who Not Found Not Found'
p629
aS'x rays Not Found Not Found'
p630
aS'the Not Found Not Found'
p631
aS'what the theory of Kromozom years'
p632
aS'who Not Found Not Found'
p633
aS'Not Found Not Found Penisilin'
p634
aS'and realizing Not Found Not Found'
p635
aS'the gene which determines the Not Found Not Found transplant .'
p636
aS'who Not Found Not Found'
p637
aS'Not Found Not Found timetable ) to resolve'
p638
aS'the first animal species of animal , and klonlanan'
p639
aS'Not Found Not Found timetable ) to resolve'
p640
aS'fonksiyonel birim currency at the structure of proteins , the building'
p641
aS'the whole of Found Not Found Not'
p642
aS'Not Found Not Found'
p643
aS'to start the process of kal\xc4\xb1tsal davran\xc4\xb1\xc5\x9fsal _ Canl\xc4\xb1lar\xc4\xb1n ,'
p644
aS'the turkish penal code ( _ Not Found the active agent can make up for them'
p645
aS'it is impossible for life out of the energy \xc3\xbccudundan \xc3\xbccudundan at\xc4\xb1klar\xc4\xb1n _ event'
p646
aS'Not Found Not Found olu\xc5\x9fturmas\xc4\xb1na'
p647
aS'Not Found Not Found'
p648
aS'Ger\xc3\xa7ekle\xc5\x9fen reaction'
p649
aS'there was eternal enmity sealed V\xc3\xbccut Not Found balance'
p650
aS'who Not Found Not Found'
p651
aS'Not Found Not Found timetable ) to resolve'
p652
aS'Not Found Not Found timetable ) to resolve'
p653
aS'who Not Found Not Found'
p654
aS'who asiti Not Found Not Found'
p655
aS'Not Found Not Found timetable ) to resolve'
p656
aS'the first synthetic cell , the paint &apos; s a great part of the organic world ,'
p657
aS'who Not Found Not Found'
p658
aS'Not Found Not Found timetable ) to resolve'
p659
aS'who Not Found Not Found'
p660
aS'Not Found Not Found timetable ) to resolve'
p661
aS'it may be called the name of the Li element'
p662
aS'it may be called the name of the NA element'
p663
aS'it may be called the name of the element'
p664
aS'it may be called the name of the RB element'
p665
aS'it may be called the name of the element'
p666
aS'how many of them , the building'
p667
aS'that the mastery of the element element'
p668
aS'who \xc4\xb0ndigoyu Not Found Not Found'
p669
aS'\xc4\xb0ndigo Not Found Not Found \xc4\xb0ndigo'
p670
aS'who Sulfanil Not Found Not Found'
p671
aS'Sulfanil Not Found Not amid , amid Found'
p672
aS'who n\xc3\xbckleotidlerinin Not Found Not Found'
p673
aS'n\xc3\xbckleotidlerinin Not Found Not Found timetable ) to resolve'
p674
aS'how , how many degrees _ , the highest degree of divergence from the water'
p675
aS'matter is in the qur &apos;an :'
p676
aS'matter is in the qur &apos;an :'
p677
aS'that turnusolu turnusolu material'
p678
aS'in his blue uniform turnusolu turnusolu in opposition to all that material ,'
p679
aS'Not Found energy source of energy source of heat ,'
p680
aS'the name of the other it may be called Monosakkaritlerin'
p681
aS'i &apos;ve been spilling sugar , which controls'
p682
aS'living beings formed as a human being is a sugar confection . &quot;'
p683
aS'the name of the other it may be called Disakkaritlerin'
p684
aS'Disakkaritlerin Not Found _ Disakkaritlerin'
p685
aS'the excellent quality of their function or complex structure , and there was a new ,'
p686
aS'Not Found Not \xc3\xa7e\xc5\x9fidi Found with oil ,'
p687
aS'the name of his deed , and the rest of the trigliserit'
p688
aS'it may be called the other N\xc3\xb6tral N\xc3\xb6tral N\xc3\xb6tral'
p689
aS'oil , which is essential to be taken , aminephosphoric acid ,'
p690
aS'Not Found crinkling , crackling noises , crinkling , crackling noises , molecules , constructed out of the organism bearing the dna molecule ,'
p691
aS'how many of the amino acid battery acid in the space of a body ,'
p692
aS'Not Found Not Found bozulmas\xc4\xb1na'
p693
aS'inside an organelle edece\xc4\x9fi material'
p694
aS'aktivasyon structure , and the true path , and that other chemicals ,'
p695
aS'most of all is that while there is a reaksiyonun amount of energy ,'
p696
aS'd\xc3\xbczenleyici Organik structure ,'
p697
aS'this place by means of Not Found Not Found uzunlu\xc4\x9fu'
p698
aS'what with the Genetik structure ,'
p699
aS'the possession of n\xc3\xbckleik composed of amino acid ,'
p700
aS'88.SAYFADA Not Found Not Found 88.SAYFADA'
p701
aS'Not Found Found Not . , etc . ,'
p702
aS'Not Found Not Found people'
p703
aS'Not Found Not Found g\xc3\xb6zlemleyen'
p704
aS'who Not Found Not Found'
p705
aS'Not Found Not Found timetable ) to resolve'
p706
aS'who Not Found Not Found'
p707
aS'Not Found Not Found timetable ) to resolve'
p708
aS'who Not Found Not Found'
p709
aS'the unique nature of the theory of evolution as a \xe2\x80\x9c knight on a Prokaryot cell'
p710
aS'Prokaryot Not Found Not acquire Found material'
p711
aS'\xc3\x96karyot Not Found Not acquire Found material'
p712
aS'as part of the \xc3\x96karyot olu\xc5\x9f how many cells ,'
p713
aS'the outer part of the fibriller sel\xc3\xbcloz structure ,'
p714
aS'how many Ak\xc4\xb1c\xc4\xb1 Not Found Not Found'
p715
aS'the single die nor dice Found Ak\xc4\xb1c\xc4\xb1 Not Found Not mozaik model ,'
p716
aS'the molecules were not Not _ Found characteristics .'
p717
aS'and then finally , zar\xc4\xb1ndaki tabaka _ directly to cell ,'
p718
aS'the arrangement of the yay\xc4\xb1lma'
p719
aS'water Not Found miktar\xc4\xb1n\xc4\xb1n yay\xc4\xb1lma event'
p720
aS'Not Found Found Not water'
p721
aS'he Not Found Not Found'
p722
aS'which relates the incident which organel organel turgor over there . &quot;'
p723
aS'Not dif\xc3\xbczyon Found water'
p724
aS'he held in front of the environment ,'
p725
aS'in front of them , we become just much less of the environment ,'
p726
aS'of the street &quot; nonstop on grandda H\xc3\xbccrenin environment ,'
p727
aS'the issue of the Not Found _ konmas\xc4\xb1'
p728
aS'Not Found _ konmas\xc4\xb1'
p729
aS'leading to the Not Found Not Found'
p730
aS'Not Found Not Found energy'
p731
aS'Not Found Not Found al\xc4\xb1nmas\xc4\xb1na'
p732
aS'Not Found Not Found al\xc4\xb1nmas\xc4\xb1na'
p733
aS'it was detonated against the theory of evolution should Not Found at\xc4\xb1klar\xc4\xb1n _ event'
p734
aS'structure of living beings formed as a dome , and it may be called'
p735
aS'organelin , \xc3\xb6karyot prokaryot organelin organelin anyone who &apos; s name , which is famous with you'
p736
aS'kanal system , which seemed to be'
p737
aS'of the organel organel organel'
p738
aS'the name of the organelin organelin organelin called'
p739
aS'that had happened to their own _ H\xc3\xbccrenin'
p740
aS'it may be called Not santral Found energy'
p741
aS'it may be called the name of the person responsible for the organelin organelin organelin'
p742
aS'organelin Salg\xc4\xb1lamada organelin organelin or allows networks involved in the name of their common nature ,'
p743
aS'ATP Not Found Not Found lay the centre of the means of production ,'
p744
aS'organellere Not organellere Found color'
p745
aS'it may be called plastide Not Found _ plastide'
p746
aS'what organelde organelde organelde'
p747
aS'here , which , under the name of the building'
p748
aS'from the members of the green , to carry and sustain all the rest of the different colors , pigment , which give colour to feathers , the building'
p749
aS'&quot; matter &quot; , which is a pigment contained in the red color'
p750
aS'matter is a pigment contained in the yellow color ,'
p751
aS'colour is a pigment contained in the matter is an orange ,'
p752
aS'plastide Not Found Not Found plastide'
p753
aS'Not Found Not Found Besin kofullar\xc4\xb1'
p754
aS'it may be called the organelin b\xc3\xb6l\xc3\xbcmesinde organelin organelin , which is famous with you'
p755
aS'it may be called by the name of a muslim different from that part of the nucleus'
p756
aS'the chapter on struggle in his name , for there would be no nucleus and the threads'
p757
aS'RNAn\xc4\xb1n Ribozomal Not Found place it may be called ,'
p758
aS'it may be called the b\xc3\xb6l\xc3\xbcmesi k\xc4\xb1sal\xc4\xb1p kal\xc4\xb1nla\xc5\x9farak structure'
p759
aS'how many kromozom human'
p760
aS'the claim that the cell'
p761
aS'additional terms imposed by the time , to find food transformed themselves into the roots of the cell ,'
p762
aS'Not _ Found'
p763
aS'Not Found Not Found'
p764
aS'how many years _'
p765
aS'there was no sign of Found _ tarii Not'
p766
aS'how many john , how many john _ years in the summer'
p767
aS'there was no sign of what _ years'
p768
aS'who Not Found Not Found'
p769
aS'there was no sign of the definition of what T\xc3\xbcr'
p770
aS'who Found _ Not'
p771
aS'that i &apos; ll be Not Found _ science'
p772
aS'how many \xc4\xb0kili _ years that you can find'
p773
aS'Monera , Not protestalar Found Found science Not into the air .'
p774
aS'Monera , Not protestalar Found Not Found timetable ) to resolve'
p775
aS'the development of science Found Arkebakteriler Not Found Not into the air .'
p776
aS'how many Arkebakteriler tan\xc4\xb1mland\xc4\xb1r , d and gaz &apos; d in years , tan\xc4\xb1mland\xc4\xb1r Arkebakteriler alemi'
p777
aS'geli\xc5\x9ftiren branch of science'
p778
aS'in one of the branch of science and mice from wheat .'
p779
aS'Not Found Not Found s\xc4\xb1n\xc4\xb1fland\xc4\xb1rma'
p780
aS'according to the g\xc3\xb6r\xc3\xbcn\xc3\xbc\xc5\x9flerine _ , you know that'
p781
aS'the assumption that living beings are made up of communities ,'
p782
aS'the development of science Found Not Found Not into the air .'
p783
aS'kullan\xc4\xb1ld\xc4\xb1r Not Found Not Bakteri Found word'
p784
aS'about how many of the Bakteri olu\xc5\x9f alemi'
p785
aS'in the _ , fine calculation ,'
p786
aS'Protoctista Protistalar Not Found Not Found , who are his brothers ,'
p787
aS'at twilight a wonderfully Not Hogg protoctista , Found Not Found Hogg'
p788
aS'the word which Proctista Proctista years'
p789
aS'the development of science Found Protoctista Not Found Not into the air .'
p790
aS'wilhelm reich , the haeker , protista , Not Found Not Found haeker'
p791
aS'the first antibiyotik antibiyotik ,'
p792
aS'the Not Found Not Found'
p793
aS'about how many years , about how many Bakteriler _ .'
p794
aS'Not Found Not Found atmosferin'
p795
aS'they propose that the matter with the aim of our people ,'
p796
aS'it means that in the yap\xc4\xb1c\xc4\xb1'
p797
aS'because of the origin of the incelenen'
p798
aS'matter is all the way ,'
p799
aS'Protistalar Not Found Not Found Protistalar'
p800
aS'what protozoon protozoon protozoon'
p801
aS'protistalara Not Found Not Found protistalara'
p802
aS'the majority of Not Found Not Found'
p803
aS'canl\xc4\xb1larar Not Found Not Found name'
p804
aS'as the first few years ago , before we go down into the Mantarlar ,'
p805
aS'it was the precise Found Not Found Not'
p806
aS'in our day , the term comes from the general term disease ,'
p807
aS'in our day , which in our day ,'
p808
aS'he considered scientific to those he considered scientific to those \xe2\x80\x94 that is ,'
p809
aS'it is impossible for life to have a structure'
p810
aS'how many different kinds of _ _'
p811
aS'Not Found Not Found plants'
p812
aS'Not Found Not Found plants'
p813
aS'is there any philosopher of water with the help of proteins , the building'
p814
aS'the plant and the remaining part of the country ,'
p815
aS'the name of the other it may be called Ksilemin'
p816
aS'and realizing structure'
p817
aS'the poor , the building'
p818
aS'the other soymuk tube in the name of their common nature ,'
p819
aS'the name of the other it may be called Floemin'
p820
aS'it may be called the name of the most part has been lying in front of them ,'
p821
aS'in short , i karbondioksit-oksijen that'
p822
aS'Not Found Not Found plants'
p823
aS'he considered scientific to those Not Found embriyosunun apollodorus the sicilian .'
p824
aS'and korunmayan tohumlu plant ,'
p825
aS'korundu\xc4\x9fu plant the seed'
p826
aS'the building of dead plant cells ,'
p827
aS'tohumlu closed , the rest of the plants in the plant &apos; s name ,'
p828
aS'he considered scientific to those Not Found ku\xc5\x9fat\xc4\xb1ld\xc4\xb1\xc4\x9f\xc4\xb1'
p829
aS'Not Found Not Found Tozla\xc5\x9fma plants'
p830
aS'the female Not Found _ process'
p831
aS'Not Found force on the tissue of force on the matter is an aspirin'
p832
aS'the pain in the matter is a pigment contained in _ the cranial bone exactly'
p833
aS'and the structure of the cell Not Found Not Found'
p834
aS'_ , is inconsistent with the fossil record . &quot;'
p835
aS'Not _ Found worlds of'
p836
aS'Not Found Not aleminin Found animals'
p837
aS'how many _ group of animals ,'
p838
aS'the story of the species of some kind of solucan Not Found'
p839
aS'in the mean time among the solucan solucan . this is exactly the kind of'
p840
aS'canl\xc4\xb1lalara Not Found Not Found canl\xc4\xb1lalara'
p841
aS'Not Found Not Found solucanlar'
p842
aS'of the sort of kind of'
p843
aS'about how many members of the members of the'
p844
aS'Not k\xc4\xb1k\xc4\xb1rdak Found structure'
p845
aS'how many Omurgal\xc4\xb1lar _ group'
p846
aS'Not Found Not Found over the head of attack by wild animals ,'
p847
aS'hanig Not Found Not Found hanig'
p848
aS'how many Bal\xc4\xb1klar _ group'
p849
aS'of the \xc4\xb0skeleti fish'
p850
aS'Not Found Not Found fish'
p851
aS'the &quot; hereafter &quot; also , that is , the eri\xc5\x9fkin , among black generations of living animals ,'
p852
aS'Not Found Not Found development'
p853
aS'on the shoulder of the omurgal\xc4\xb1 as it is impossible for life ,'
p854
aS'do n &apos;t put your V\xc3\xbccudundaki'
p855
aS'and menacing barrier of the feather ,'
p856
aS'Not Found Not Found Ku\xc5\x9flar'
p857
aS'Not Found Not Found Ku\xc5\x9flar'
p858
aS'besleyen attack by wild animals ,'
p859
aS'he thinks he &apos; s the shape of the solunum solunum memeliler towards the sky .'
p860
aS'a muslim different from the single die nor dice'
p861
aS'there are a number of Not Found'
p862
aS'the benefits of Bakterileri virus'
p863
aS'disguise Vir\xc3\xbcslerdeki protein'
p864
aS'the name of his deed , and the rest of the U\xc3\xa7uk virus ,'
p865
aS'the name of his deed , and the rest of the kuduz virus'
p866
aS'disease of the disease'
p867
aS'it may be called the name of the virus'
p868
aS'Not _ Found'
p869
aS'Not Found Not Found timetable ) to resolve'
p870
aS'Not Found Not Found timetable ) to resolve'
p871
aS'Not Found Not Found timetable ) to resolve'
p872
aS'Not Found Not Found timetable ) to resolve'
p873
aS'it may be called the name of science , the rest of the environment'
p874
aS'Not Found ekoloji Ekoloji'
p875
aS'Not Found Not Found timetable ) to resolve'
p876
aS'Not Found Not Found timetable ) to resolve'
p877
aS'Not Found Not Found timetable ) to resolve'
p878
aS'Not Found Not Found timetable ) to resolve'
p879
aS'Not Found Not Found timetable ) to resolve'
p880
aS'the k\xc3\xbctle yerk\xc3\xbcre _ gas'
p881
aS'how many years in the space of a Vez\xc3\xbcv _ yanarda\xc4\x9f patlamas\xc4\xb1'
p882
aS'the average temperature Not Found Not Found'
p883
aS'iklim known as it happened . . .'
p884
aS'HESin Not Found HESin a\xc3\xa7\xc4\xb1l\xc4\xb1m HESin a\xc3\xa7\xc4\xb1l\xc4\xb1m\xc4\xb1'
p885
aS'the Not Found Not Found yang\xc4\xb1n\xc4\xb1'
p886
aS'is there any philosopher of the forest yang\xc4\xb1n\xc4\xb1 years'
p887
aS'Not Found Found kayb\xc4\xb1 Not elsewhere the telluric ground ,'
p888
aS'how many hektar _ turkey turkey'
p889
aS'how many hektar _ turkey turkey'
p890
aS'how many hektar _ turkey turkey'
p891
aS'as the consequence either \xc3\xbcretildi\xc4\x9fi tesis using electricity'
p892
aS'within the framework of the energy'
p893
aS'Not Found gama alfa beams ,'
p894
aS'who Not Found Not Found'
p895
aS'how many years in the space of a santral santrali _ energy'
p896
aS'Not Found santral santrali nere energy'
p897
aS'because they interfered with Not Found Not Found r\xc3\xb6ntgeni'
p898
aS'of the Not Found Not Found'
p899
aS'how many Nobel curienin , marie , curienin curienin nobel prize was adjudged to a nobel prize'
p900
aS'that &apos; s a short man , under the name in the society .'
p901
aS'the voice'
p902
aS'_ voice from the study'
p903
aS'and karan\xc4\xb1n Found Not the black sea ,'
p904
aS'during their lifetime to the Not Found Not Found'
p905
aS'kirli\xc4\x9finine Not Found Not Found kirli\xc4\x9finine'
p906
aS'Not Found raw material'
p907
aS'75i percent Not Found Not Found 75i percent'
p908
aS'k\xc3\xbctahyada Not Found Not Found k\xc3\xbctahyada'
p909
aS'Not Found Not Found'
p910
aS'rezevlerinin Not Found Not Found \xc3\x9clkemiz'
p911
aS'turkey HESten , Not Found Not Found HESten'
p912
aS'45i percent , Not T\xc3\xbcrkiyenin Found Not Found 45i percent'
p913
aS'the whole of the cell \xc3\x96karyotik Not Found'
p914
aS'haz\xc4\xb1rland\xc4\xb1\xc4\x9f\xc4\xb1 evre b\xc3\xb6l\xc3\xbcnmeye'
p915
aS'Not Found Not Found b\xc3\xb6l\xc3\xbcnmesine'
p916
aS'and what it is _ mitoz evre'
p917
aS'what mitoz evre'
p918
aS'what mitoz evre kromatin'
p919
aS'what mitoz evre kromatin iplikler'
p920
aS'what mitoz sentrozomlar evre sentrozomlar z\xc4\xb1t sentrozomlar'
p921
aS'what mitoz evre i\xc4\x9f i\xc4\x9f iplikleri'
p922
aS'what mitoz evre kromozomlar kromozom cell'
p923
aS'Not Found _ evre b\xc3\xb6l\xc3\xbcnme evresi'
p924
aS'brother , do you know what mitoz evre kromatit kromatitler'
p925
aS'b\xc3\xb6l\xc3\xbc\xc5\x9ft\xc3\xbcr\xc3\xbcld\xc3\xbc\xc4\x9f\xc3\xbc geneticist and an outspoken mitoz Genetik a\xc5\x9famas\xc4\xb1 mitoz stage'
p926
aS'hangidir Not Found Not Found mitoz'
p927
aS'and stay their growth : the main _ , and how that changes shape .'
p928
aS'the main _ Not Found that had happened to the ledge .'
p929
aS'the main event h\xc3\xbccreli birey _ , the baby to the organism'
p930
aS'Not Found Not Found plants'
p931
aS'from the fruitless strain on Kopan birey _ , or has something to be part of our life ,'
p932
aS'he considered scientific to those he had already been mitoz olgun thales _ _'
p933
aS'in terms of Mayoz Mayoz \xc3\xbcrem towards the sky .'
p934
aS'the main Found Not evre b\xc3\xb6l\xc3\xbcnmeye _ , a preparation of the cell'
p935
aS'what evre Mayozun Mayozun cell'
p936
aS'what it may be called mayozun Tetrat evre mayozun ,'
p937
aS'what evre mayozun Cross-over mayozun ,'
p938
aS'what evre mayozun mayozun'
p939
aS'little by little to a\xc5\x9famas\xc4\xb1 Mayoz Mayoz Mayoz moses ( pbuh )'
p940
aS'tetrar\xc4\xb1 Mayozun tetrar\xc4\xb1 _ , which evre kromozomlar'
p941
aS'she got up , and which , _ Mayozun evre Mayozun'
p942
aS'little by little to the theory of evolution did not know what the theory of evolution should Mayozun'
p943
aS'Not Found Not Found olu\xc5\x9fturmas\xc4\xb1na'
p944
aS'Not Found Gametlerin _ event'
p945
aS'it is impossible for life , which controls'
p946
aS'together , which controls the female flower ,'
p947
aS'it should be Found Not Found Not'
p948
aS'it &apos; d hardly _ Not Found'
p949
aS'the gene which determines the event Not Found aktar\xc4\xb1m'
p950
aS'Not Found Not Found almas\xc4\xb1na'
p951
aS'what mitokondri mitokondri part of the country ,'
p952
aS'or &apos; defect &apos; in what part of the country ,'
p953
aS'to the emergence of Found Not Found Not'
p954
aS'to the emergence of Found Not Found Not'
p955
aS'hormon hormon raises the alarm ,'
p956
aS'hangidir , \xc3\x96strojen salg\xc4\xb1tan , Not Found Not Found salg\xc4\xb1tan'
p957
aS'hangidir , Not Ovulasyonu Found Not Found Ovulasyonu'
p958
aS'progesteron , Korpus salg\xc4\xb1latan hormon hormon luteumdan ,'
p959
aS'that hormon hormon Korpus luteumun ,'
p960
aS'that hormon hormon'
p961
aS'even though it was the egg Oogenezin cycle'
p962
aS'he went , the Tutuldu\xc4\x9fu Testislerin'
p963
aS'the theory of evolution to be produced ,'
p964
aS'the main hormon Salg\xc4\xb1lanan hormon'
p965
aS'hormon hormon raises the alarm ,'
p966
aS'Spermatogenezi ba\xc5\x9flatan hormon hormon'
p967
aS'hangidir Not Found Not Found hormonun'
p968
aS'Not Found Not Found olu\xc5\x9fturmas\xc4\xb1na'
p969
aS'that had happened to Not Found zigotun _ _'
p970
aS'what am apollodorus the sicilian .'
p971
aS'Not Found Not Found artmas\xc4\xb1na'
p972
aS'the cell of a series of Segmentayon'
p973
aS'_ Geometrik cell number'
p974
aS'Not Found Not Found kazanmas\xc4\xb1na'
p975
aS'blastomerlerin g\xc3\xb6r\xc3\xbcn\xc3\xbcm\xc3\xbcndeki k\xc3\xbcme dut meyvesi _ cell'
p976
aS'then the safha safha period'
p977
aS'from what evre'
p978
aS'the different sahfas\xc4\xb1nda , sahfas\xc4\xb1nda _ Gastrula tabaka organ'
p979
aS'Not Found Not Found embriyo'
p980
aS'the first the single die nor dice ,'
p981
aS'amniyon Not Found Not Found amniyon'
p982
aS'the tabaka and protects them from the outside world ,'
p983
aS'he went , the biriktirildi\xc4\x9fi art\xc4\xb1klar\xc4\xb1n'
p984
aS'he went , the \xe2\x80\x9c golden ratio \xe2\x80\x9d used'
p985
aS'Not Found Found Not to carry out that'
p986
aS'Blastositin Not Found Blastositin _ event'
p987
aS'Not Found Not Found'
p988
aS'the theory of evolution should Not Found death'
p989
aS'the branch of science in one of the branch of science'
p990
aS'kom\xc3\xbcniteleri Not Found Not Found name'
p991
aS'the branch of science in one of the branch of science'
p992
aS'populasyonlar\xc4\xb1n\xc4\xb1n of themselves build such organelles in the origin of species ,'
p993
aS'in one of the branch of science Kom\xc3\xbcnite branch of science'
p994
aS'Not Found group of names ,'
p995
aS'in one of the populasyonun populasyon branch , branch of science , without any design ,'
p996
aS'the assumption that living beings in the recent past ,'
p997
aS'which , however , other names biyosfer'
p998
aS'it may be called _ Olu\xc5\x9fturduklar\xc4\xb1'
p999
aS'in one of the branch of science'
p1000
aS'as well as for the community'
p1001
aS'Birbirleriyle pop\xc3\xbclasyonlar\xc4\xb1n which are made up of communities ,'
p1002
aS'was \xc3\xbcreyebildi\xc4\x9fi place'
p1003
aS'he put the ekosistemlerdeki organisms'
p1004
aS'the air for a long time , the lord of all ko\xc5\x9ful'
p1005
aS'only it is impossible for life and live on ,'
p1006
aS'it is impossible for life , which feed on'
p1007
aS'sentezleyebilen organism'
p1008
aS'the Not Found organism'
p1009
aS'sentezlerken by wild animals , those who are his brothers ,'
p1010
aS'of the simbiyont simbiyont relationship'
p1011
a.